target datalayout = "e-m:e-p270:32:32-p271:32:32-p272:64:64-i64:64-i128:128-f80:128-n8:16:32:64-S128"
target triple = "x86_64-pc-linux-gnu"

%struct.DefElem = type { i32, ptr, ptr, ptr, i32, i32 }
%struct.Node = type { i32 }
%struct.Integer = type { i32, i32 }
%struct.Float = type { i32, ptr }

@.str.1 = private unnamed_addr constant [9 x i8] c"define.c\00", align 1
@.str.7 = private unnamed_addr constant [28 x i8] c"%s requires a numeric value\00", align 1
@__func__.defGetNumeric = private unnamed_addr constant [14 x i8] c"defGetNumeric\00", align 1

; Function Attrs: inlinehint nounwind willreturn memory(read) uwtable
define available_externally double @atof(ptr noundef nonnull %0) #4 {
  %2 = alloca ptr, align 8
  store ptr %0, ptr %2, align 8
  %3 = load ptr, ptr %2, align 8
  %4 = call double @strtod(ptr noundef %3, ptr noundef null) #11
  ret double %4
}

; Function Attrs: nounwind uwtable
define dso_local double @defGetNumeric(ptr noundef %0) #0 {
  %2 = alloca double, align 8
  %3 = alloca ptr, align 8
  store ptr %0, ptr %3, align 8
  %4 = load ptr, ptr %3, align 8
  %5 = getelementptr inbounds nuw %struct.DefElem, ptr %4, i32 0, i32 3
  %6 = load ptr, ptr %5, align 8
  %7 = icmp eq ptr %6, null
  br i1 %7, label %8, label %22

8:                                                ; preds = %1
  br label %9

9:                                                ; preds = %8
  br i1 true, label %10, label %12

10:                                               ; preds = %9
  %11 = call zeroext i1 @errstart_cold(i32 noundef 21, ptr noundef null) #9
  br i1 %11, label %14, label %20

12:                                               ; preds = %9
  %13 = call zeroext i1 @errstart(i32 noundef 21, ptr noundef null)
  br i1 %13, label %14, label %20

14:                                               ; preds = %12, %10
  %15 = call i32 @errcode(i32 noundef 16801924)
  %16 = load ptr, ptr %3, align 8
  %17 = getelementptr inbounds nuw %struct.DefElem, ptr %16, i32 0, i32 2
  %18 = load ptr, ptr %17, align 8
  %19 = call i32 (ptr, ...) @errmsg(ptr noundef @.str.7, ptr noundef %18)
  call void @errfinish(ptr noundef @.str.1, i32 noundef 74, ptr noundef @__func__.defGetNumeric)
  br label %20

20:                                               ; preds = %14, %12, %10
  unreachable

21:                                               ; No predecessors!
  br label %22

22:                                               ; preds = %21, %1
  %23 = load ptr, ptr %3, align 8
  %24 = getelementptr inbounds nuw %struct.DefElem, ptr %23, i32 0, i32 3
  %25 = load ptr, ptr %24, align 8
  %26 = getelementptr inbounds nuw %struct.Node, ptr %25, i32 0, i32 0
  %27 = load i32, ptr %26, align 4
  switch i32 %27, label %42 [
    i32 464, label %28
    i32 465, label %35
  ]

28:                                               ; preds = %22
  %29 = load ptr, ptr %3, align 8
  %30 = getelementptr inbounds nuw %struct.DefElem, ptr %29, i32 0, i32 3
  %31 = load ptr, ptr %30, align 8
  %32 = getelementptr inbounds nuw %struct.Integer, ptr %31, i32 0, i32 1
  %33 = load i32, ptr %32, align 4
  %34 = sitofp i32 %33 to double
  store double %34, ptr %2, align 8
  br label %57

35:                                               ; preds = %22
  %36 = load ptr, ptr %3, align 8
  %37 = getelementptr inbounds nuw %struct.DefElem, ptr %36, i32 0, i32 3
  %38 = load ptr, ptr %37, align 8
  %39 = getelementptr inbounds nuw %struct.Float, ptr %38, i32 0, i32 1
  %40 = load ptr, ptr %39, align 8
  %41 = call double @atof(ptr noundef %40) #10
  store double %41, ptr %2, align 8
  br label %57

42:                                               ; preds = %22
  br label %43

43:                                               ; preds = %42
  br i1 true, label %44, label %46

44:                                               ; preds = %43
  %45 = call zeroext i1 @errstart_cold(i32 noundef 21, ptr noundef null) #9
  br i1 %45, label %48, label %54

46:                                               ; preds = %43
  %47 = call zeroext i1 @errstart(i32 noundef 21, ptr noundef null)
  br i1 %47, label %48, label %54

48:                                               ; preds = %46, %44
  %49 = call i32 @errcode(i32 noundef 16801924)
  %50 = load ptr, ptr %3, align 8
  %51 = getelementptr inbounds nuw %struct.DefElem, ptr %50, i32 0, i32 2
  %52 = load ptr, ptr %51, align 8
  %53 = call i32 (ptr, ...) @errmsg(ptr noundef @.str.7, ptr noundef %52)
  call void @errfinish(ptr noundef @.str.1, i32 noundef 85, ptr noundef @__func__.defGetNumeric)
  br label %54

54:                                               ; preds = %48, %46, %44
  unreachable

55:                                               ; No predecessors!
  br label %56

56:                                               ; preds = %55
  store double 0.000000e+00, ptr %2, align 8
  br label %57

57:                                               ; preds = %56, %35, %28
  %58 = load double, ptr %2, align 8
  ret double %58
}