; Function Attrs: nounwind uwtable
define dso_local double @defGetNumeric(ptr noundef readonly captures(none) %0) local_unnamed_addr #0 {
  %2 = getelementptr inbounds nuw i8, ptr %0, i64 24
  %3 = load ptr, ptr %2, align 8
  %4 = icmp eq ptr %3, null
  br i1 %4, label %5, label %11

5:                                                ; preds = %1
  %6 = tail call zeroext i1 @errstart_cold(i32 noundef 21, ptr noundef null) #6
  tail call void @llvm.assume(i1 %6)
  %7 = tail call i32 @errcode(i32 noundef 16801924) #7
  %8 = getelementptr inbounds nuw i8, ptr %0, i64 16
  %9 = load ptr, ptr %8, align 8
  %10 = tail call i32 (ptr, ...) @errmsg(ptr noundef nonnull @.str.7, ptr noundef %9) #7
  tail call void @errfinish(ptr noundef nonnull @.str.1, i32 noundef 74, ptr noundef nonnull @__func__.defGetNumeric) #7
  unreachable

11:                                               ; preds = %1
  %12 = load i32, ptr %3, align 4
  switch i32 %12, label %21 [
    i32 464, label %13
    i32 465, label %17
  ]

13:                                               ; preds = %11
  %14 = getelementptr inbounds nuw i8, ptr %3, i64 4
  %15 = load i32, ptr %14, align 4
  %16 = sitofp i32 %15 to double
  br label %27

17:                                               ; preds = %11
  %18 = getelementptr inbounds nuw i8, ptr %3, i64 8
  %19 = load ptr, ptr %18, align 8
  %20 = tail call double @strtod(ptr noundef nonnull captures(none) %19, ptr noundef null) #7
  br label %27

21:                                               ; preds = %11
  %22 = tail call zeroext i1 @errstart_cold(i32 noundef 21, ptr noundef null) #6
  tail call void @llvm.assume(i1 %22)
  %23 = tail call i32 @errcode(i32 noundef 16801924) #7
  %24 = getelementptr inbounds nuw i8, ptr %0, i64 16
  %25 = load ptr, ptr %24, align 8
  %26 = tail call i32 (ptr, ...) @errmsg(ptr noundef nonnull @.str.7, ptr noundef %25) #7
  tail call void @errfinish(ptr noundef nonnull @.str.1, i32 noundef 85, ptr noundef nonnull @__func__.defGetNumeric) #7
  unreachable

27:                                               ; preds = %17, %13
  %.0 = phi double [ %20, %17 ], [ %16, %13 ]
  ret double %.0
}